target datalayout = "e-m:e-p270:32:32-p271:32:32-p272:64:64-i64:64-i128:128-f80:128-n8:16:32:64-S128"
target triple = "x86_64-pc-linux-gnu"

%struct.Vec_Int_t_ = type { i32, i32, ptr }
%struct.Vec_Bit_t_ = type { i32, i32, ptr }
%struct.Vec_Wec_t_ = type { i32, i32, ptr }
%struct.Sle_Man_t_ = type { ptr, i32, i32, i32, i32, i32, i32, i32, i32, i32, i32, i32, i32, ptr, ptr, ptr, ptr, ptr, ptr, ptr, ptr, ptr, ptr, ptr, ptr, i64 }

; Function Attrs: inlinehint nounwind uwtable
define internal void @Vec_WecErase(ptr noundef %0) #2 {
  %2 = alloca ptr, align 8
  %3 = alloca i32, align 4
  store ptr %0, ptr %2, align 8, !tbaa !67
  call void @llvm.lifetime.start.p0(i64 4, ptr %3) #12
  store i32 0, ptr %3, align 4, !tbaa !8
  br label %4

4:                                                ; preds = %38, %1
  %5 = load i32, ptr %3, align 4, !tbaa !8
  %6 = load ptr, ptr %2, align 8, !tbaa !67
  %7 = getelementptr inbounds nuw %struct.Vec_Wec_t_, ptr %6, i32 0, i32 0
  %8 = load i32, ptr %7, align 8, !tbaa !90
  %9 = icmp slt i32 %5, %8
  br i1 %9, label %10, label %41

10:                                               ; preds = %4
  %11 = load ptr, ptr %2, align 8, !tbaa !67
  %12 = getelementptr inbounds nuw %struct.Vec_Wec_t_, ptr %11, i32 0, i32 2
  %13 = load ptr, ptr %12, align 8, !tbaa !71
  %14 = load i32, ptr %3, align 4, !tbaa !8
  %15 = sext i32 %14 to i64
  %16 = getelementptr inbounds %struct.Vec_Int_t_, ptr %13, i64 %15
  %17 = getelementptr inbounds nuw %struct.Vec_Int_t_, ptr %16, i32 0, i32 2
  %18 = load ptr, ptr %17, align 8, !tbaa !37
  %19 = icmp ne ptr %18, null
  br i1 %19, label %20, label %36

20:                                               ; preds = %10
  %21 = load ptr, ptr %2, align 8, !tbaa !67
  %22 = getelementptr inbounds nuw %struct.Vec_Wec_t_, ptr %21, i32 0, i32 2
  %23 = load ptr, ptr %22, align 8, !tbaa !71
  %24 = load i32, ptr %3, align 4, !tbaa !8
  %25 = sext i32 %24 to i64
  %26 = getelementptr inbounds %struct.Vec_Int_t_, ptr %23, i64 %25
  %27 = getelementptr inbounds nuw %struct.Vec_Int_t_, ptr %26, i32 0, i32 2
  %28 = load ptr, ptr %27, align 8, !tbaa !37
  call void @free(ptr noundef %28) #12
  %29 = load ptr, ptr %2, align 8, !tbaa !67
  %30 = getelementptr inbounds nuw %struct.Vec_Wec_t_, ptr %29, i32 0, i32 2
  %31 = load ptr, ptr %30, align 8, !tbaa !71
  %32 = load i32, ptr %3, align 4, !tbaa !8
  %33 = sext i32 %32 to i64
  %34 = getelementptr inbounds %struct.Vec_Int_t_, ptr %31, i64 %33
  %35 = getelementptr inbounds nuw %struct.Vec_Int_t_, ptr %34, i32 0, i32 2
  store ptr null, ptr %35, align 8, !tbaa !37
  br label %37

36:                                               ; preds = %10
  br label %37

37:                                               ; preds = %36, %20
  br label %38

38:                                               ; preds = %37
  %39 = load i32, ptr %3, align 4, !tbaa !8
  %40 = add nsw i32 %39, 1
  store i32 %40, ptr %3, align 4, !tbaa !8
  br label %4, !llvm.loop !183

41:                                               ; preds = %4
  %42 = load ptr, ptr %2, align 8, !tbaa !67
  %43 = getelementptr inbounds nuw %struct.Vec_Wec_t_, ptr %42, i32 0, i32 2
  %44 = load ptr, ptr %43, align 8, !tbaa !71
  %45 = icmp ne ptr %44, null
  br i1 %45, label %46, label %52

46:                                               ; preds = %41
  %47 = load ptr, ptr %2, align 8, !tbaa !67
  %48 = getelementptr inbounds nuw %struct.Vec_Wec_t_, ptr %47, i32 0, i32 2
  %49 = load ptr, ptr %48, align 8, !tbaa !71
  call void @free(ptr noundef %49) #12
  %50 = load ptr, ptr %2, align 8, !tbaa !67
  %51 = getelementptr inbounds nuw %struct.Vec_Wec_t_, ptr %50, i32 0, i32 2
  store ptr null, ptr %51, align 8, !tbaa !71
  br label %53

52:                                               ; preds = %41
  br label %53

53:                                               ; preds = %52, %46
  %54 = load ptr, ptr %2, align 8, !tbaa !67
  %55 = getelementptr inbounds nuw %struct.Vec_Wec_t_, ptr %54, i32 0, i32 1
  store i32 0, ptr %55, align 4, !tbaa !69
  %56 = load ptr, ptr %2, align 8, !tbaa !67
  %57 = getelementptr inbounds nuw %struct.Vec_Wec_t_, ptr %56, i32 0, i32 0
  store i32 0, ptr %57, align 8, !tbaa !90
  call void @llvm.lifetime.end.p0(i64 4, ptr %3) #12
  ret void
}

; Function Attrs: inlinehint nounwind uwtable
define internal void @Vec_WecFree(ptr noundef %0) #2 {
  %2 = alloca ptr, align 8
  store ptr %0, ptr %2, align 8, !tbaa !67
  %3 = load ptr, ptr %2, align 8, !tbaa !67
  call void @Vec_WecErase(ptr noundef %3)
  %4 = load ptr, ptr %2, align 8, !tbaa !67
  %5 = icmp ne ptr %4, null
  br i1 %5, label %6, label %8

6:                                                ; preds = %1
  %7 = load ptr, ptr %2, align 8, !tbaa !67
  call void @free(ptr noundef %7) #12
  store ptr null, ptr %2, align 8, !tbaa !67
  br label %9

8:                                                ; preds = %1
  br label %9

9:                                                ; preds = %8, %6
  ret void
}

; Function Attrs: inlinehint nounwind uwtable
define internal void @Vec_IntFree(ptr noundef %0) #2 {
  %2 = alloca ptr, align 8
  store ptr %0, ptr %2, align 8, !tbaa !10
  %3 = load ptr, ptr %2, align 8, !tbaa !10
  %4 = getelementptr inbounds nuw %struct.Vec_Int_t_, ptr %3, i32 0, i32 2
  %5 = load ptr, ptr %4, align 8, !tbaa !37
  %6 = icmp ne ptr %5, null
  br i1 %6, label %7, label %13

7:                                                ; preds = %1
  %8 = load ptr, ptr %2, align 8, !tbaa !10
  %9 = getelementptr inbounds nuw %struct.Vec_Int_t_, ptr %8, i32 0, i32 2
  %10 = load ptr, ptr %9, align 8, !tbaa !37
  call void @free(ptr noundef %10) #12
  %11 = load ptr, ptr %2, align 8, !tbaa !10
  %12 = getelementptr inbounds nuw %struct.Vec_Int_t_, ptr %11, i32 0, i32 2
  store ptr null, ptr %12, align 8, !tbaa !37
  br label %14

13:                                               ; preds = %1
  br label %14

14:                                               ; preds = %13, %7
  %15 = load ptr, ptr %2, align 8, !tbaa !10
  %16 = icmp ne ptr %15, null
  br i1 %16, label %17, label %19

17:                                               ; preds = %14
  %18 = load ptr, ptr %2, align 8, !tbaa !10
  call void @free(ptr noundef %18) #12
  store ptr null, ptr %2, align 8, !tbaa !10
  br label %20

19:                                               ; preds = %14
  br label %20

20:                                               ; preds = %19, %17
  ret void
}

; Function Attrs: inlinehint nounwind uwtable
define internal void @Vec_BitFree(ptr noundef %0) #2 {
  %2 = alloca ptr, align 8
  store ptr %0, ptr %2, align 8, !tbaa !58
  %3 = load ptr, ptr %2, align 8, !tbaa !58
  %4 = getelementptr inbounds nuw %struct.Vec_Bit_t_, ptr %3, i32 0, i32 2
  %5 = load ptr, ptr %4, align 8, !tbaa !62
  %6 = icmp ne ptr %5, null
  br i1 %6, label %7, label %13

7:                                                ; preds = %1
  %8 = load ptr, ptr %2, align 8, !tbaa !58
  %9 = getelementptr inbounds nuw %struct.Vec_Bit_t_, ptr %8, i32 0, i32 2
  %10 = load ptr, ptr %9, align 8, !tbaa !62
  call void @free(ptr noundef %10) #12
  %11 = load ptr, ptr %2, align 8, !tbaa !58
  %12 = getelementptr inbounds nuw %struct.Vec_Bit_t_, ptr %11, i32 0, i32 2
  store ptr null, ptr %12, align 8, !tbaa !62
  br label %14

13:                                               ; preds = %1
  br label %14

14:                                               ; preds = %13, %7
  %15 = load ptr, ptr %2, align 8, !tbaa !58
  %16 = icmp ne ptr %15, null
  br i1 %16, label %17, label %19

17:                                               ; preds = %14
  %18 = load ptr, ptr %2, align 8, !tbaa !58
  call void @free(ptr noundef %18) #12
  store ptr null, ptr %2, align 8, !tbaa !58
  br label %20

19:                                               ; preds = %14
  br label %20

20:                                               ; preds = %19, %17
  ret void
}

; Function Attrs: nounwind uwtable
define void @Sle_ManStop(ptr noundef %0) #0 {
  %2 = alloca ptr, align 8
  store ptr %0, ptr %2, align 8, !tbaa !72
  %3 = load ptr, ptr %2, align 8, !tbaa !72
  %4 = getelementptr inbounds nuw %struct.Sle_Man_t_, ptr %3, i32 0, i32 13
  %5 = load ptr, ptr %4, align 8, !tbaa !91
  call void @sat_solver_delete(ptr noundef %5)
  %6 = load ptr, ptr %2, align 8, !tbaa !72
  %7 = getelementptr inbounds nuw %struct.Sle_Man_t_, ptr %6, i32 0, i32 14
  %8 = load ptr, ptr %7, align 8, !tbaa !79
  call void @Vec_BitFree(ptr noundef %8)
  %9 = load ptr, ptr %2, align 8, !tbaa !72
  %10 = getelementptr inbounds nuw %struct.Sle_Man_t_, ptr %9, i32 0, i32 15
  %11 = load ptr, ptr %10, align 8, !tbaa !80
  call void @Vec_IntFree(ptr noundef %11)
  %12 = load ptr, ptr %2, align 8, !tbaa !72
  %13 = getelementptr inbounds nuw %struct.Sle_Man_t_, ptr %12, i32 0, i32 16
  %14 = load ptr, ptr %13, align 8, !tbaa !81
  call void @Vec_WecFree(ptr noundef %14)
  %15 = load ptr, ptr %2, align 8, !tbaa !72
  %16 = getelementptr inbounds nuw %struct.Sle_Man_t_, ptr %15, i32 0, i32 17
  %17 = load ptr, ptr %16, align 8, !tbaa !82
  call void @Vec_WecFree(ptr noundef %17)
  %18 = load ptr, ptr %2, align 8, !tbaa !72
  %19 = getelementptr inbounds nuw %struct.Sle_Man_t_, ptr %18, i32 0, i32 18
  %20 = load ptr, ptr %19, align 8, !tbaa !83
  call void @Vec_WecFree(ptr noundef %20)
  %21 = load ptr, ptr %2, align 8, !tbaa !72
  %22 = getelementptr inbounds nuw %struct.Sle_Man_t_, ptr %21, i32 0, i32 19
  %23 = load ptr, ptr %22, align 8, !tbaa !84
  call void @Vec_IntFree(ptr noundef %23)
  %24 = load ptr, ptr %2, align 8, !tbaa !72
  %25 = getelementptr inbounds nuw %struct.Sle_Man_t_, ptr %24, i32 0, i32 20
  %26 = load ptr, ptr %25, align 8, !tbaa !85
  call void @Vec_IntFree(ptr noundef %26)
  %27 = load ptr, ptr %2, align 8, !tbaa !72
  %28 = getelementptr inbounds nuw %struct.Sle_Man_t_, ptr %27, i32 0, i32 21
  %29 = load ptr, ptr %28, align 8, !tbaa !86
  call void @Vec_IntFree(ptr noundef %29)
  %30 = load ptr, ptr %2, align 8, !tbaa !72
  %31 = getelementptr inbounds nuw %struct.Sle_Man_t_, ptr %30, i32 0, i32 22
  %32 = load ptr, ptr %31, align 8, !tbaa !87
  call void @Vec_IntFree(ptr noundef %32)
  %33 = load ptr, ptr %2, align 8, !tbaa !72
  %34 = getelementptr inbounds nuw %struct.Sle_Man_t_, ptr %33, i32 0, i32 23
  %35 = load ptr, ptr %34, align 8, !tbaa !88
  call void @Vec_IntFree(ptr noundef %35)
  %36 = load ptr, ptr %2, align 8, !tbaa !72
  %37 = getelementptr inbounds nuw %struct.Sle_Man_t_, ptr %36, i32 0, i32 24
  %38 = load ptr, ptr %37, align 8, !tbaa !89
  call void @Vec_IntFree(ptr noundef %38)
  %39 = load ptr, ptr %2, align 8, !tbaa !72
  %40 = icmp ne ptr %39, null
  br i1 %40, label %41, label %43

41:                                               ; preds = %1
  %42 = load ptr, ptr %2, align 8, !tbaa !72
  call void @free(ptr noundef %42) #12
  store ptr null, ptr %2, align 8, !tbaa !72
  br label %44

43:                                               ; preds = %1
  br label %44

44:                                               ; preds = %43, %41
  ret void
}