; Function Attrs: nounwind uwtable
define void @Sle_ManStop(ptr noundef captures(none) %0) local_unnamed_addr #0 {
  %2 = getelementptr inbounds nuw i8, ptr %0, i64 56
  %3 = load ptr, ptr %2, align 8, !tbaa !85
  tail call void @sat_solver_delete(ptr noundef %3) #22
  %4 = getelementptr inbounds nuw i8, ptr %0, i64 64
  %5 = load ptr, ptr %4, align 8, !tbaa !74
  %6 = getelementptr inbounds nuw i8, ptr %5, i64 8
  %7 = load ptr, ptr %6, align 8, !tbaa !57
  %.not.i = icmp eq ptr %7, null
  br i1 %.not.i, label %Vec_BitFree.exit, label %8

8:                                                ; preds = %1
  tail call void @free(ptr noundef nonnull %7) #22
  br label %Vec_BitFree.exit

Vec_BitFree.exit:                                 ; preds = %1, %8
  tail call void @free(ptr noundef nonnull %5) #22
  %9 = getelementptr inbounds nuw i8, ptr %0, i64 72
  %10 = load ptr, ptr %9, align 8, !tbaa !75
  %11 = getelementptr inbounds nuw i8, ptr %10, i64 8
  %12 = load ptr, ptr %11, align 8, !tbaa !28
  %.not.i14 = icmp eq ptr %12, null
  br i1 %.not.i14, label %Vec_IntFree.exit, label %13

13:                                               ; preds = %Vec_BitFree.exit
  tail call void @free(ptr noundef nonnull %12) #22
  br label %Vec_IntFree.exit

Vec_IntFree.exit:                                 ; preds = %Vec_BitFree.exit, %13
  tail call void @free(ptr noundef nonnull %10) #22
  %14 = getelementptr inbounds nuw i8, ptr %0, i64 80
  %15 = load ptr, ptr %14, align 8, !tbaa !76
  %16 = load i32, ptr %15, align 8, !tbaa !64
  %17 = icmp sgt i32 %16, 0
  %18 = getelementptr inbounds nuw i8, ptr %15, i64 8
  %.pre.i.i = load ptr, ptr %18, align 8, !tbaa !66
  br i1 %17, label %.lr.ph.i.i, label %._crit_edge.i.i

.lr.ph.i.i:                                       ; preds = %Vec_IntFree.exit, %26
  %19 = phi i32 [ %27, %26 ], [ %16, %Vec_IntFree.exit ]
  %20 = phi ptr [ %28, %26 ], [ %.pre.i.i, %Vec_IntFree.exit ]
  %indvars.iv.i.i = phi i64 [ %indvars.iv.next.i.i, %26 ], [ 0, %Vec_IntFree.exit ]
  %21 = getelementptr inbounds nuw %struct.Vec_Int_t_, ptr %20, i64 %indvars.iv.i.i, i32 2
  %22 = load ptr, ptr %21, align 8, !tbaa !28
  %.not15.i.i = icmp eq ptr %22, null
  br i1 %.not15.i.i, label %26, label %23

23:                                               ; preds = %.lr.ph.i.i
  tail call void @free(ptr noundef nonnull %22) #22
  %24 = load ptr, ptr %18, align 8, !tbaa !66
  %25 = getelementptr inbounds nuw %struct.Vec_Int_t_, ptr %24, i64 %indvars.iv.i.i, i32 2
  store ptr null, ptr %25, align 8, !tbaa !28
  %.pre18.i.i = load i32, ptr %15, align 8, !tbaa !64
  br label %26

26:                                               ; preds = %23, %.lr.ph.i.i
  %27 = phi i32 [ %.pre18.i.i, %23 ], [ %19, %.lr.ph.i.i ]
  %28 = phi ptr [ %24, %23 ], [ %20, %.lr.ph.i.i ]
  %indvars.iv.next.i.i = add nuw nsw i64 %indvars.iv.i.i, 1
  %29 = sext i32 %27 to i64
  %30 = icmp slt i64 %indvars.iv.next.i.i, %29
  br i1 %30, label %.lr.ph.i.i, label %._crit_edge.thread.i.i, !llvm.loop !86

._crit_edge.i.i:                                  ; preds = %Vec_IntFree.exit
  %.not.i.i = icmp eq ptr %.pre.i.i, null
  br i1 %.not.i.i, label %Vec_WecFree.exit, label %._crit_edge.thread.i.i

._crit_edge.thread.i.i:                           ; preds = %26, %._crit_edge.i.i
  %31 = phi ptr [ %.pre.i.i, %._crit_edge.i.i ], [ %28, %26 ]
  tail call void @free(ptr noundef nonnull %31) #22
  br label %Vec_WecFree.exit

Vec_WecFree.exit:                                 ; preds = %._crit_edge.i.i, %._crit_edge.thread.i.i
  tail call void @free(ptr noundef nonnull %15) #22
  %32 = getelementptr inbounds nuw i8, ptr %0, i64 88
  %33 = load ptr, ptr %32, align 8, !tbaa !77
  %34 = load i32, ptr %33, align 8, !tbaa !64
  %35 = icmp sgt i32 %34, 0
  %36 = getelementptr inbounds nuw i8, ptr %33, i64 8
  %.pre.i.i15 = load ptr, ptr %36, align 8, !tbaa !66
  br i1 %35, label %.lr.ph.i.i19, label %._crit_edge.i.i16

.lr.ph.i.i19:                                     ; preds = %Vec_WecFree.exit, %44
  %37 = phi i32 [ %45, %44 ], [ %34, %Vec_WecFree.exit ]
  %38 = phi ptr [ %46, %44 ], [ %.pre.i.i15, %Vec_WecFree.exit ]
  %indvars.iv.i.i20 = phi i64 [ %indvars.iv.next.i.i23, %44 ], [ 0, %Vec_WecFree.exit ]
  %39 = getelementptr inbounds nuw %struct.Vec_Int_t_, ptr %38, i64 %indvars.iv.i.i20, i32 2
  %40 = load ptr, ptr %39, align 8, !tbaa !28
  %.not15.i.i21 = icmp eq ptr %40, null
  br i1 %.not15.i.i21, label %44, label %41

41:                                               ; preds = %.lr.ph.i.i19
  tail call void @free(ptr noundef nonnull %40) #22
  %42 = load ptr, ptr %36, align 8, !tbaa !66
  %43 = getelementptr inbounds nuw %struct.Vec_Int_t_, ptr %42, i64 %indvars.iv.i.i20, i32 2
  store ptr null, ptr %43, align 8, !tbaa !28
  %.pre18.i.i22 = load i32, ptr %33, align 8, !tbaa !64
  br label %44

44:                                               ; preds = %41, %.lr.ph.i.i19
  %45 = phi i32 [ %.pre18.i.i22, %41 ], [ %37, %.lr.ph.i.i19 ]
  %46 = phi ptr [ %42, %41 ], [ %38, %.lr.ph.i.i19 ]
  %indvars.iv.next.i.i23 = add nuw nsw i64 %indvars.iv.i.i20, 1
  %47 = sext i32 %45 to i64
  %48 = icmp slt i64 %indvars.iv.next.i.i23, %47
  br i1 %48, label %.lr.ph.i.i19, label %._crit_edge.thread.i.i18, !llvm.loop !86

._crit_edge.i.i16:                                ; preds = %Vec_WecFree.exit
  %.not.i.i17 = icmp eq ptr %.pre.i.i15, null
  br i1 %.not.i.i17, label %Vec_WecFree.exit24, label %._crit_edge.thread.i.i18

._crit_edge.thread.i.i18:                         ; preds = %44, %._crit_edge.i.i16
  %49 = phi ptr [ %.pre.i.i15, %._crit_edge.i.i16 ], [ %46, %44 ]
  tail call void @free(ptr noundef nonnull %49) #22
  br label %Vec_WecFree.exit24

Vec_WecFree.exit24:                               ; preds = %._crit_edge.i.i16, %._crit_edge.thread.i.i18
  tail call void @free(ptr noundef nonnull %33) #22
  %50 = getelementptr inbounds nuw i8, ptr %0, i64 96
  %51 = load ptr, ptr %50, align 8, !tbaa !78
  %52 = load i32, ptr %51, align 8, !tbaa !64
  %53 = icmp sgt i32 %52, 0
  %54 = getelementptr inbounds nuw i8, ptr %51, i64 8
  %.pre.i.i25 = load ptr, ptr %54, align 8, !tbaa !66
  br i1 %53, label %.lr.ph.i.i29, label %._crit_edge.i.i26

.lr.ph.i.i29:                                     ; preds = %Vec_WecFree.exit24, %62
  %55 = phi i32 [ %63, %62 ], [ %52, %Vec_WecFree.exit24 ]
  %56 = phi ptr [ %64, %62 ], [ %.pre.i.i25, %Vec_WecFree.exit24 ]
  %indvars.iv.i.i30 = phi i64 [ %indvars.iv.next.i.i33, %62 ], [ 0, %Vec_WecFree.exit24 ]
  %57 = getelementptr inbounds nuw %struct.Vec_Int_t_, ptr %56, i64 %indvars.iv.i.i30, i32 2
  %58 = load ptr, ptr %57, align 8, !tbaa !28
  %.not15.i.i31 = icmp eq ptr %58, null
  br i1 %.not15.i.i31, label %62, label %59

59:                                               ; preds = %.lr.ph.i.i29
  tail call void @free(ptr noundef nonnull %58) #22
  %60 = load ptr, ptr %54, align 8, !tbaa !66
  %61 = getelementptr inbounds nuw %struct.Vec_Int_t_, ptr %60, i64 %indvars.iv.i.i30, i32 2
  store ptr null, ptr %61, align 8, !tbaa !28
  %.pre18.i.i32 = load i32, ptr %51, align 8, !tbaa !64
  br label %62

62:                                               ; preds = %59, %.lr.ph.i.i29
  %63 = phi i32 [ %.pre18.i.i32, %59 ], [ %55, %.lr.ph.i.i29 ]
  %64 = phi ptr [ %60, %59 ], [ %56, %.lr.ph.i.i29 ]
  %indvars.iv.next.i.i33 = add nuw nsw i64 %indvars.iv.i.i30, 1
  %65 = sext i32 %63 to i64
  %66 = icmp slt i64 %indvars.iv.next.i.i33, %65
  br i1 %66, label %.lr.ph.i.i29, label %._crit_edge.thread.i.i28, !llvm.loop !86

._crit_edge.i.i26:                                ; preds = %Vec_WecFree.exit24
  %.not.i.i27 = icmp eq ptr %.pre.i.i25, null
  br i1 %.not.i.i27, label %Vec_WecFree.exit34, label %._crit_edge.thread.i.i28

._crit_edge.thread.i.i28:                         ; preds = %62, %._crit_edge.i.i26
  %67 = phi ptr [ %.pre.i.i25, %._crit_edge.i.i26 ], [ %64, %62 ]
  tail call void @free(ptr noundef nonnull %67) #22
  br label %Vec_WecFree.exit34

Vec_WecFree.exit34:                               ; preds = %._crit_edge.i.i26, %._crit_edge.thread.i.i28
  tail call void @free(ptr noundef nonnull %51) #22
  %68 = getelementptr inbounds nuw i8, ptr %0, i64 104
  %69 = load ptr, ptr %68, align 8, !tbaa !79
  %70 = getelementptr inbounds nuw i8, ptr %69, i64 8
  %71 = load ptr, ptr %70, align 8, !tbaa !28
  %.not.i35 = icmp eq ptr %71, null
  br i1 %.not.i35, label %Vec_IntFree.exit36, label %72

72:                                               ; preds = %Vec_WecFree.exit34
  tail call void @free(ptr noundef nonnull %71) #22
  br label %Vec_IntFree.exit36

Vec_IntFree.exit36:                               ; preds = %Vec_WecFree.exit34, %72
  tail call void @free(ptr noundef nonnull %69) #22
  %73 = getelementptr inbounds nuw i8, ptr %0, i64 112
  %74 = load ptr, ptr %73, align 8, !tbaa !80
  %75 = getelementptr inbounds nuw i8, ptr %74, i64 8
  %76 = load ptr, ptr %75, align 8, !tbaa !28
  %.not.i37 = icmp eq ptr %76, null
  br i1 %.not.i37, label %Vec_IntFree.exit38, label %77

77:                                               ; preds = %Vec_IntFree.exit36
  tail call void @free(ptr noundef nonnull %76) #22
  br label %Vec_IntFree.exit38

Vec_IntFree.exit38:                               ; preds = %Vec_IntFree.exit36, %77
  tail call void @free(ptr noundef nonnull %74) #22
  %78 = getelementptr inbounds nuw i8, ptr %0, i64 120
  %79 = load ptr, ptr %78, align 8, !tbaa !81
  %80 = getelementptr inbounds nuw i8, ptr %79, i64 8
  %81 = load ptr, ptr %80, align 8, !tbaa !28
  %.not.i39 = icmp eq ptr %81, null
  br i1 %.not.i39, label %Vec_IntFree.exit40, label %82

82:                                               ; preds = %Vec_IntFree.exit38
  tail call void @free(ptr noundef nonnull %81) #22
  br label %Vec_IntFree.exit40

Vec_IntFree.exit40:                               ; preds = %Vec_IntFree.exit38, %82
  tail call void @free(ptr noundef nonnull %79) #22
  %83 = getelementptr inbounds nuw i8, ptr %0, i64 128
  %84 = load ptr, ptr %83, align 8, !tbaa !82
  %85 = getelementptr inbounds nuw i8, ptr %84, i64 8
  %86 = load ptr, ptr %85, align 8, !tbaa !28
  %.not.i41 = icmp eq ptr %86, null
  br i1 %.not.i41, label %Vec_IntFree.exit42, label %87

87:                                               ; preds = %Vec_IntFree.exit40
  tail call void @free(ptr noundef nonnull %86) #22
  br label %Vec_IntFree.exit42

Vec_IntFree.exit42:                               ; preds = %Vec_IntFree.exit40, %87
  tail call void @free(ptr noundef nonnull %84) #22
  %88 = getelementptr inbounds nuw i8, ptr %0, i64 136
  %89 = load ptr, ptr %88, align 8, !tbaa !83
  %90 = getelementptr inbounds nuw i8, ptr %89, i64 8
  %91 = load ptr, ptr %90, align 8, !tbaa !28
  %.not.i43 = icmp eq ptr %91, null
  br i1 %.not.i43, label %Vec_IntFree.exit44, label %92

92:                                               ; preds = %Vec_IntFree.exit42
  tail call void @free(ptr noundef nonnull %91) #22
  br label %Vec_IntFree.exit44

Vec_IntFree.exit44:                               ; preds = %Vec_IntFree.exit42, %92
  tail call void @free(ptr noundef nonnull %89) #22
  %93 = getelementptr inbounds nuw i8, ptr %0, i64 144
  %94 = load ptr, ptr %93, align 8, !tbaa !84
  %95 = getelementptr inbounds nuw i8, ptr %94, i64 8
  %96 = load ptr, ptr %95, align 8, !tbaa !28
  %.not.i45 = icmp eq ptr %96, null
  br i1 %.not.i45, label %98, label %97

97:                                               ; preds = %Vec_IntFree.exit44
  tail call void @free(ptr noundef nonnull %96) #22
  br label %98

98:                                               ; preds = %Vec_IntFree.exit44, %97
  tail call void @free(ptr noundef nonnull %94) #22
  tail call void @free(ptr noundef nonnull %0) #22
  ret void
}